target datalayout = "e-m:e-p270:32:32-p271:32:32-p272:64:64-i64:64-i128:128-f80:128-n8:16:32:64-S128"
target triple = "x86_64-pc-linux-gnu"

%struct.gmx_multisim_t = type { i32, i32, ptr, ptr }
%class.anon.36 = type { i8 }

@.str.1 = private unnamed_addr constant [131 x i8] c"generated/home/dtcxzyw/WorkSpace/Projects/compilers/llvm-opt-benchmark/bench/gromacs/gromacs/src/gromacs/mdrunutility/multisim.cpp\00", align 1
@TMPI_INT64_T = external constant ptr, align 8
@.str.20 = private unnamed_addr constant [4 x i8] c"buf\00", align 1
@.str.21 = private unnamed_addr constant [3 x i8] c"ms\00", align 1
@.str.22 = private unnamed_addr constant [40 x i8] c"Invalid use of multi-simulation pointer\00", align 1
@"__PRETTY_FUNCTION__._ZZL26multisim_int_all_are_equalPK14gmx_multisim_tlENK3$_0clEv" = private unnamed_addr constant [104 x i8] c"auto multisim_int_all_are_equal(const gmx_multisim_t *, int64_t)::(anonymous class)::operator()() const\00", align 1

; Function Attrs: mustprogress uwtable
define internal void @_ZL14gmx_sfree_implIlEvPKcS1_iPT_(ptr noundef %0, ptr noundef %1, i32 noundef %2, ptr noundef %3) #0 {
  %5 = alloca ptr, align 8
  %6 = alloca ptr, align 8
  %7 = alloca i32, align 4
  %8 = alloca ptr, align 8
  store ptr %0, ptr %5, align 8
  store ptr %1, ptr %6, align 8
  store i32 %2, ptr %7, align 4
  store ptr %3, ptr %8, align 8
  %9 = load ptr, ptr %5, align 8
  %10 = load ptr, ptr %6, align 8
  %11 = load i32, ptr %7, align 4
  %12 = load ptr, ptr %8, align 8
  call void @_Z9save_freePKcS0_iPv(ptr noundef %9, ptr noundef %10, i32 noundef %11, ptr noundef %12)
  ret void
}

; Function Attrs: mustprogress uwtable
define void @_Z13gmx_sumli_simiPlPK14gmx_multisim_t(i32 noundef %0, ptr noundef %1, ptr noundef %2) #0 {
  %4 = alloca i32, align 4
  %5 = alloca ptr, align 8
  %6 = alloca ptr, align 8
  store i32 %0, ptr %4, align 4
  store ptr %1, ptr %5, align 8
  store ptr %2, ptr %6, align 8
  %7 = load ptr, ptr %5, align 8
  %8 = load i32, ptr %4, align 4
  %9 = load ptr, ptr @TMPI_INT64_T, align 8
  %10 = load ptr, ptr %6, align 8
  %11 = getelementptr inbounds %struct.gmx_multisim_t, ptr %10, i32 0, i32 2
  %12 = load ptr, ptr %11, align 8
  %13 = call noundef i32 @_Z14tMPI_AllreducePvS_iP14tmpi_datatype_7tMPI_OpP10tmpi_comm_(ptr noundef null, ptr noundef %7, i32 noundef %8, ptr noundef %9, i32 noundef 2, ptr noundef %12)
  ret void
}

; Function Attrs: mustprogress uwtable
define internal void @_ZL13gmx_snew_implIlEvPKcS1_iRPT_m(ptr noundef %0, ptr noundef %1, i32 noundef %2, ptr noundef nonnull align 8 dereferenceable(8) %3, i64 noundef %4) #0 {
  %6 = alloca ptr, align 8
  %7 = alloca ptr, align 8
  %8 = alloca i32, align 4
  %9 = alloca ptr, align 8
  %10 = alloca i64, align 8
  store ptr %0, ptr %6, align 8
  store ptr %1, ptr %7, align 8
  store i32 %2, ptr %8, align 4
  store ptr %3, ptr %9, align 8
  store i64 %4, ptr %10, align 8
  %11 = load ptr, ptr %6, align 8
  %12 = load ptr, ptr %7, align 8
  %13 = load i32, ptr %8, align 4
  %14 = load i64, ptr %10, align 8
  %15 = call noundef ptr @_Z11save_callocPKcS0_imm(ptr noundef %11, ptr noundef %12, i32 noundef %13, i64 noundef %14, i64 noundef 8)
  %16 = load ptr, ptr %9, align 8
  store ptr %15, ptr %16, align 8
  ret void
}

; Function Attrs: mustprogress uwtable
define internal void @"_ZZL26multisim_int_all_are_equalPK14gmx_multisim_tlENK3$_0clEv"(ptr noundef nonnull align 1 dereferenceable(1) %0) #0 align 2 {
  %2 = alloca ptr, align 8
  store ptr %0, ptr %2, align 8
  call void @_ZN3gmx8internal13assertHandlerEPKcS2_S2_S2_i(ptr noundef @.str.21, ptr noundef @.str.22, ptr noundef @"__PRETTY_FUNCTION__._ZZL26multisim_int_all_are_equalPK14gmx_multisim_tlENK3$_0clEv", ptr noundef @.str.1, i32 noundef 392) #11
  unreachable
}

; Function Attrs: mustprogress uwtable
define internal noundef zeroext i1 @_ZL26multisim_int_all_are_equalPK14gmx_multisim_tl(ptr noundef %0, i64 noundef %1) #0 {
  %3 = alloca ptr, align 8
  %4 = alloca i64, align 8
  %5 = alloca i8, align 1
  %6 = alloca ptr, align 8
  %7 = alloca %class.anon.36, align 1
  %8 = alloca i32, align 4
  store ptr %0, ptr %3, align 8
  store i64 %1, ptr %4, align 8
  store i8 1, ptr %5, align 1
  %9 = load ptr, ptr %3, align 8
  %10 = icmp ne ptr %9, null
  br i1 %10, label %11, label %12

11:                                               ; preds = %2
  br label %13

12:                                               ; preds = %2
  call void @"_ZZL26multisim_int_all_are_equalPK14gmx_multisim_tlENK3$_0clEv"(ptr noundef nonnull align 1 dereferenceable(1) %7)
  br label %13

13:                                               ; preds = %12, %11
  %14 = load ptr, ptr %3, align 8
  %15 = getelementptr inbounds %struct.gmx_multisim_t, ptr %14, i32 0, i32 0
  %16 = load i32, ptr %15, align 8
  %17 = sext i32 %16 to i64
  call void @_ZL13gmx_snew_implIlEvPKcS1_iRPT_m(ptr noundef @.str.20, ptr noundef @.str.1, i32 noundef 394, ptr noundef nonnull align 8 dereferenceable(8) %6, i64 noundef %17)
  %18 = load i64, ptr %4, align 8
  %19 = load ptr, ptr %6, align 8
  %20 = load ptr, ptr %3, align 8
  %21 = getelementptr inbounds %struct.gmx_multisim_t, ptr %20, i32 0, i32 1
  %22 = load i32, ptr %21, align 4
  %23 = sext i32 %22 to i64
  %24 = getelementptr inbounds i64, ptr %19, i64 %23
  store i64 %18, ptr %24, align 8
  %25 = load ptr, ptr %3, align 8
  %26 = getelementptr inbounds %struct.gmx_multisim_t, ptr %25, i32 0, i32 0
  %27 = load i32, ptr %26, align 8
  %28 = load ptr, ptr %6, align 8
  %29 = load ptr, ptr %3, align 8
  call void @_Z13gmx_sumli_simiPlPK14gmx_multisim_t(i32 noundef %27, ptr noundef %28, ptr noundef %29)
  store i32 0, ptr %8, align 4
  br label %30

30:                                               ; preds = %46, %13
  %31 = load i32, ptr %8, align 4
  %32 = load ptr, ptr %3, align 8
  %33 = getelementptr inbounds %struct.gmx_multisim_t, ptr %32, i32 0, i32 0
  %34 = load i32, ptr %33, align 8
  %35 = icmp slt i32 %31, %34
  br i1 %35, label %36, label %49

36:                                               ; preds = %30
  %37 = load ptr, ptr %6, align 8
  %38 = load i32, ptr %8, align 4
  %39 = sext i32 %38 to i64
  %40 = getelementptr inbounds i64, ptr %37, i64 %39
  %41 = load i64, ptr %40, align 8
  %42 = load i64, ptr %4, align 8
  %43 = icmp ne i64 %41, %42
  br i1 %43, label %44, label %45

44:                                               ; preds = %36
  store i8 0, ptr %5, align 1
  br label %49

45:                                               ; preds = %36
  br label %46

46:                                               ; preds = %45
  %47 = load i32, ptr %8, align 4
  %48 = add nsw i32 %47, 1
  store i32 %48, ptr %8, align 4
  br label %30, !llvm.loop !12

49:                                               ; preds = %44, %30
  %50 = load ptr, ptr %6, align 8
  call void @_ZL14gmx_sfree_implIlEvPKcS1_iPT_(ptr noundef @.str.20, ptr noundef @.str.1, i32 noundef 408, ptr noundef %50)
  %51 = load i8, ptr %5, align 1
  %52 = trunc i8 %51 to i1
  ret i1 %52
}