; Function Attrs: mustprogress uwtable
define internal fastcc noundef zeroext i1 @_ZL26multisim_int_all_are_equalPK14gmx_multisim_tl(ptr noundef readonly %0, i64 noundef %1) unnamed_addr #0 {
  %.not = icmp eq ptr %0, null
  br i1 %.not, label %3, label %4

3:                                                ; preds = %2
  tail call void @_ZN3gmx8internal13assertHandlerEPKcS2_S2_S2_i(ptr noundef nonnull @.str.21, ptr noundef nonnull @.str.22, ptr noundef nonnull @"__PRETTY_FUNCTION__._ZZL26multisim_int_all_are_equalPK14gmx_multisim_tlENK3$_0clEv", ptr noundef nonnull @.str.1, i32 noundef 392) #20
  unreachable

4:                                                ; preds = %2
  %5 = load i32, ptr %0, align 8
  %6 = sext i32 %5 to i64
  %7 = tail call noundef ptr @_Z11save_callocPKcS0_imm(ptr noundef nonnull @.str.20, ptr noundef nonnull @.str.1, i32 noundef 394, i64 noundef %6, i64 noundef 8)
  %8 = getelementptr inbounds i8, ptr %0, i64 4
  %9 = load i32, ptr %8, align 4
  %10 = sext i32 %9 to i64
  %11 = getelementptr inbounds i64, ptr %7, i64 %10
  store i64 %1, ptr %11, align 8
  %12 = load i32, ptr %0, align 8
  %13 = load ptr, ptr @TMPI_INT64_T, align 8
  %14 = getelementptr inbounds i8, ptr %0, i64 8
  %15 = load ptr, ptr %14, align 8
  %16 = tail call noundef i32 @_Z14tMPI_AllreducePvS_iP14tmpi_datatype_7tMPI_OpP10tmpi_comm_(ptr noundef null, ptr noundef %7, i32 noundef %12, ptr noundef %13, i32 noundef 2, ptr noundef %15)
  %17 = load i32, ptr %0, align 8
  %18 = icmp slt i32 %17, 1
  br i1 %18, label %._crit_edge, label %.lr.ph.preheader

.lr.ph.preheader:                                 ; preds = %4
  %19 = zext nneg i32 %17 to i64
  %wide.trip.count = zext nneg i32 %17 to i64
  %20 = load i64, ptr %7, align 8
  %.not1219 = icmp eq i64 %20, %1
  br i1 %.not1219, label %.lr.ph21, label %._crit_edge

.lr.ph21:                                         ; preds = %.lr.ph.preheader, %.lr.ph
  %indvars.iv20 = phi i64 [ %indvars.iv.next, %.lr.ph ], [ 0, %.lr.ph.preheader ]
  %indvars.iv.next = add nuw nsw i64 %indvars.iv20, 1
  %exitcond = icmp eq i64 %indvars.iv.next, %wide.trip.count
  br i1 %exitcond, label %._crit_edge.loopexit, label %.lr.ph, !llvm.loop !11

.lr.ph:                                           ; preds = %.lr.ph21
  %21 = getelementptr inbounds i64, ptr %7, i64 %indvars.iv.next
  %22 = load i64, ptr %21, align 8
  %.not12 = icmp eq i64 %22, %1
  br i1 %.not12, label %.lr.ph21, label %._crit_edge.loopexit, !llvm.loop !11

._crit_edge.loopexit:                             ; preds = %.lr.ph21, %.lr.ph
  %23 = icmp uge i64 %indvars.iv.next, %19
  br label %._crit_edge

._crit_edge:                                      ; preds = %._crit_edge.loopexit, %.lr.ph.preheader, %4
  %.lcssa = phi i1 [ true, %4 ], [ false, %.lr.ph.preheader ], [ %23, %._crit_edge.loopexit ]
  tail call void @_Z9save_freePKcS0_iPv(ptr noundef nonnull @.str.20, ptr noundef nonnull @.str.1, i32 noundef 408, ptr noundef nonnull %7)
  ret i1 %.lcssa
}